(lp0
NaNaNaNaNaNaNaNaNaNaNaNaNaNaNaNaNaNaNaNaNaNaNaNaNaNaNaNaNaNaNaNa(F-163.02749633789062
F130.6527862548828
tp1
a(F-161.00616455078125
F124.48667907714844
tp2
a(F-149.2882843017578
F176.285888671875
tp3
a(F-148.73362731933594
F172.64505004882812
tp4
a(F-147.1778564453125
F168.1845703125
tp5
a(F-144.76287841796875
F163.87570190429688
tp6
a(F-142.50547790527344
F158.9142303466797
tp7
a(F-140.13633728027344
F153.07998657226562
tp8
a(F-137.7623291015625
F147.86236572265625
tp9
a(F-136.48602294921875
F142.70416259765625
tp10
a(F-134.445556640625
F136.38897705078125
tp11
a(F-103.23663330078125
F30.21106719970703
tp12
a(F-94.77556610107422
F23.886920928955078
tp13
a(F-87.11737823486328
F15.348613739013672
tp14
a(F-84.78199768066406
F9.640008926391602
tp15
a(F-77.46122741699219
F4.520799160003662
tp16
a(F-75.62413787841797
F1.0745441913604736
tp17
a(F-73.7170639038086
F-2.359196424484253
tp18
a(F-70.85018920898438
F-5.741111755371094
tp19
a(F-67.4496078491211
F-9.122925758361816
tp20
a(F-63.6366081237793
F-12.407760620117188
tp21
a(F-59.49784469604492
F-15.557942390441895
tp22
a(F-55.32685089111328
F-18.71284294128418
tp23
a(F-50.984649658203125
F-21.582820892333984
tp24
a(F-46.64748764038086
F-23.51054573059082
tp25
a(F-42.3420295715332
F-25.59033203125
tp26
a(F-37.844627380371094
F-27.981409072875977
tp27
a(F-33.18402099609375
F-30.00580406188965
tp28
a(F-28.323057174682617
F-31.54053497314453
tp29
a(F-23.056350708007812
F-32.64735794067383
tp30
a(F-5.967270851135254
F-23.289043426513672
tp31
a(F-11.998455047607422
F-34.82169723510742
tp32
a(F-6.428654193878174
F-35.66945266723633
tp33
a(F-1.037153720855713
F-36.339412689208984
tp34
a(F35.962974548339844
F0.27271246910095215
tp35
a(F37.87168884277344
F0.5310682654380798
tp36
a(F39.609806060791016
F0.7187004089355469
tp37
a(F15.247763633728027
F-37.74553680419922
tp38
a(F17.851085662841797
F-37.949928283691406
tp39
a(F19.917932510375977
F-38.127784729003906
tp40
a(F21.553163528442383
F-38.32194519042969
tp41
a(F22.777542114257812
F-38.461421966552734
tp42
a(F23.685331344604492
F-38.50626754760742
tp43
a(F24.36537742614746
F-38.495765686035156
tp44
a(F27.06389045715332
F-39.039546966552734
tp45
a(F25.979156494140625
F-38.30693054199219
tp46
a(F25.310976028442383
F-37.833621978759766
tp47
a(F24.779691696166992
F-37.47930908203125
tp48
a(F24.29173469543457
F-37.187320709228516
tp49
a(F23.813514709472656
F-36.94587326049805
tp50
a(F23.328964233398438
F-36.73091125488281
tp51
a(F22.84087562561035
F-36.56046676635742
tp52
a(F22.33122444152832
F-36.37913131713867
tp53
a(F21.802968978881836
F-36.255706787109375
tp54
a(F21.27647590637207
F-36.137874603271484
tp55
a(F20.739126205444336
F-36.032901763916016
tp56
a(F20.196786880493164
F-35.95450210571289
tp57
a(F19.58186912536621
F-35.841365814208984
tp58
a(F18.861494064331055
F-35.760345458984375
tp59
a(F17.96872901916504
F-35.67622375488281
tp60
a(F16.855003356933594
F-35.651363372802734
tp61
a(F15.426692962646484
F-35.64681625366211
tp62
a(F13.649303436279297
F-35.73003387451172
tp63
a(F11.453303337097168
F-35.85861587524414
tp64
a(F8.822147369384766
F-36.067684173583984
tp65
a(F5.7229390144348145
F-36.29811477661133
tp66
a(F2.198659896850586
F-36.53856658935547
tp67
a(F36.092716217041016
F0.1816239356994629
tp68
a(F33.45564651489258
F-0.46367764472961426
tp69
a(F29.882349014282227
F-1.016668677330017
tp70
a(F25.9307804107666
F-1.6422420740127563
tp71
a(F22.03675079345703
F-2.157275438308716
tp72
a(F18.78860092163086
F-2.6351077556610107
tp73
a(F17.61392593383789
F-3.017782211303711
tp74
a(F16.589248657226562
F-3.2998757362365723
tp75
a(F15.956951141357422
F-3.4590213298797607
tp76
a(F15.958590507507324
F-3.4316458702087402
tp77
a(F16.61586570739746
F-3.2652993202209473
tp78
a(F17.934724807739258
F-2.975628614425659
tp79
a(F19.839557647705078
F-2.6235711574554443
tp80
a(F22.24617576599121
F-2.1027321815490723
tp81
a(F24.895992279052734
F-1.616506814956665
tp82
a(F27.79995346069336
F-0.9232425093650818
tp83
a(F30.74567413330078
F-0.31311899423599243
tp84
a(F33.58110427856445
F0.3266306221485138
tp85
a(F36.30234909057617
F1.060786247253418
tp86
a(F38.755859375
F1.6966309547424316
tp87
a(F40.778038024902344
F2.162181854248047
tp88
a(F42.286190032958984
F2.454707384109497
tp89
a(F43.19252395629883
F2.526428461074829
tp90
a(F43.423770904541016
F2.4445104598999023
tp91
a(F42.935646057128906
F2.144329786300659
tp92
a(F41.67557907104492
F1.6665118932724
tp93
a(F39.703609466552734
F1.128163456916809
tp94
a(F37.22932815551758
F0.5260703563690186
tp95
a(F34.42406463623047
F-0.0020872752647846937
tp96
a(F31.505416870117188
F-0.3832013010978699
tp97
a(F28.600156784057617
F-0.7469592094421387
tp98
a(F25.86456871032715
F-1.0470209121704102
tp99
a(F23.4344482421875
F-1.221069097518921
tp100
a(F21.472309112548828
F-1.232141137123108
tp101
a(F20.081098556518555
F-1.1574344635009766
tp102
a(F19.414766311645508
F-0.9977142810821533
tp103
a(F19.578594207763672
F-0.6862801909446716
tp104
a(F20.57921600341797
F-0.1930246651172638
tp105
a(F22.347570419311523
F0.4274345338344574
tp106
a(F24.768083572387695
F1.090162992477417
tp107
a(F27.7171630859375
F1.9518377780914307
tp108
a(F30.950151443481445
F2.824939012527466
tp109
a(F-8.484933853149414
F-33.12767791748047
tp110
a(F-4.318863391876221
F-33.29109573364258
tp111
a(F-0.7149130702018738
F-33.49276351928711
tp112
a(F2.1847827434539795
F-33.79915237426758
tp113
a(F4.302052974700928
F-34.1536865234375
tp114
a(F5.683572292327881
F-34.54259490966797
tp115
a(F6.346734046936035
F-34.92911911010742
tp116
a(F6.324645519256592
F-35.31895065307617
tp117
a(F5.578221321105957
F-35.68229293823242
tp118
a(F4.1298017501831055
F-36.01819610595703
tp119
a(F2.072845697402954
F-36.29936218261719
tp120
a(F-0.5139011144638062
F-36.462013244628906
tp121
a(F-3.5031285285949707
F-36.519859313964844
tp122
a(F-6.82147741317749
F-36.48938751220703
tp123
a(F-10.339983940124512
F-36.40688705444336
tp124
a(F25.05073356628418
F-2.7629599571228027
tp125
a(F23.01656150817871
F-3.63669753074646
tp126
a(F21.038288116455078
F-4.298421859741211
tp127
a(F19.335126876831055
F-4.5347900390625
tp128
a(F17.875167846679688
F-5.102639198303223
tp129
a(F-25.303146362304688
F-35.71461486816406
tp130
a(F-24.78040313720703
F-35.95491409301758
tp131
a(F-23.077301025390625
F-36.336517333984375
tp132
a(F20.457496643066406
F-5.028955459594727
tp133
a(F21.1824951171875
F-4.755308628082275
tp134
a(F22.80612564086914
F-4.57503080368042
tp135
a(F26.532255172729492
F-4.5137810707092285
tp136
a(F28.80518341064453
F-4.260812759399414
tp137
a(F32.20492935180664
F-3.941467523574829
tp138
a(F35.34477996826172
F-3.683863401412964
tp139
a(F38.74773406982422
F-3.534865379333496
tp140
a(F41.927852630615234
F-3.3972671031951904
tp141
a(F44.639652252197266
F-3.399630546569824
tp142
a(F46.783111572265625
F-3.5227625370025635
tp143
a(F48.35798645019531
F-3.8161892890930176
tp144
a(F49.401580810546875
F-4.188594341278076
tp145
a(F49.92626953125
F-4.6912126541137695
tp146
a(F49.87850570678711
F-5.316957950592041
tp147
a(F49.25868225097656
F-6.084800720214844
tp148
a(F48.087440490722656
F-6.9400153160095215
tp149
a(F46.397544860839844
F-7.765635013580322
tp150
a(F42.672550201416016
F-8.855633735656738
tp151
a(F38.81199645996094
F-9.93946647644043
tp152
a(F37.48127746582031
F-10.851091384887695
tp153
a(F34.0396614074707
F-11.53641128540039
tp154
a(F31.240583419799805
F-12.070612907409668
tp155
a(F29.196481704711914
F-12.479814529418945
tp156
a(F27.849037170410156
F-12.792457580566406
tp157
a(F27.751163482666016
F-12.908422470092773
tp158
a(F30.637500762939453
F-12.8553466796875
tp159
a(F31.825695037841797
F-12.545536041259766
tp160
a(F33.408477783203125
F-12.13029670715332
tp161
a(F35.87483596801758
F-11.662789344787598
tp162
a(F39.349937438964844
F-10.987593650817871
tp163
a(F43.99505615234375
F-9.961853981018066
tp164
a(F47.89360427856445
F-9.202037811279297
tp165
a(F51.04236602783203
F-8.627058982849121
tp166
a(F53.34123992919922
F-8.267572402954102
tp167
a(F54.874961853027344
F-8.09377384185791
tp168
a(F55.69376754760742
F-8.145864486694336
tp169
a(F54.741432189941406
F-8.99515151977539
tp170
a(F52.55897521972656
F-9.767581939697266
tp171
a(F48.29508590698242
F-10.831974983215332
tp172
a(F46.6219596862793
F-11.474955558776855
tp173
a(F44.693870544433594
F-12.236785888671875
tp174
a(F42.6463623046875
F-12.833126068115234
tp175
a(F40.634342193603516
F-13.295239448547363
tp176
a(F38.7742919921875
F-13.656684875488281
tp177
a(F37.19720458984375
F-13.930395126342773
tp178
a(F36.04646682739258
F-14.10483169555664
tp179
a(F35.514617919921875
F-13.987482070922852
tp180
a(F35.65291213989258
F-13.758404731750488
tp181
a(F36.48751449584961
F-13.415727615356445
tp182
a(F37.949562072753906
F-13.002835273742676
tp183
a(F39.940120697021484
F-12.479884147644043
tp184
a(F40.76193618774414
F-12.140655517578125
tp185
a(F43.70901870727539
F-11.491908073425293
tp186
a(F45.167938232421875
F-11.109556198120117
tp187
a(F46.96336364746094
F-10.629096984863281
tp188
a(F50.24161911010742
F-9.756093978881836
tp189
a(F53.48478317260742
F-8.975445747375488
tp190
a(F55.891014099121094
F-8.437607765197754
tp191
a(F57.45066833496094
F-8.13617992401123
tp192
a(F58.1240348815918
F-8.07587718963623
tp193
a(F58.07654571533203
F-8.20341682434082
tp194
a(F57.32485580444336
F-8.516910552978516
tp195
a(F55.955326080322266
F-8.954848289489746
tp196
a(F54.12934112548828
F-9.380629539489746
tp197
a(F51.1717529296875
F-10.073509216308594
tp198
a(F47.70100402832031
F-10.684602737426758
tp199
a(F44.51665496826172
F-11.21362018585205
tp200
a(F43.944461822509766
F-11.365448951721191
tp201
a(F41.441078186035156
F-11.613390922546387
tp202
a(F41.554779052734375
F-11.482041358947754
tp203
a(F40.1983642578125
F-11.386566162109375
tp204
a(F41.49958038330078
F-10.963944435119629
tp205
a(F43.24477005004883
F-10.459626197814941
tp206
a(F44.225223541259766
F-9.106762886047363
tp207
a(F46.85463333129883
F-8.28977108001709
tp208
a(F49.72056579589844
F-7.459489345550537
tp209
a(F52.695369720458984
F-6.642515182495117
tp210
a(F55.897804260253906
F-5.871486186981201
tp211
a(F58.46532440185547
F-5.236688137054443
tp212
a(F60.15555953979492
F-4.860111713409424
tp213
a(F61.08647155761719
F-4.665222644805908
tp214
a(F61.30470657348633
F-4.642002582550049
tp215
a(F60.852725982666016
F-4.752821922302246
tp216
a(F59.720821380615234
F-5.017670154571533
tp217
a(F57.85249710083008
F-5.352687358856201
tp218
a(F55.336647033691406
F-5.6931352615356445
tp219
a(F52.31600570678711
F-6.035647392272949
tp220
a(F47.16372299194336
F-6.69929838180542
tp221
a(F42.72114181518555
F-7.12666654586792
tp222
a(F38.42383575439453
F-7.319150447845459
tp223
a(F2.3073477745056152
F-45.112709045410156
tp224
a(F34.578758239746094
F-6.973278522491455
tp225
a(F34.36765670776367
F-6.501450538635254
tp226
a(F34.330814361572266
F-5.9127092361450195
tp227
a(F34.58718490600586
F-5.461672306060791
tp228
a(F35.30171585083008
F-4.736534595489502
tp229
a(F36.45615768432617
F-4.014617443084717
tp230
a(F38.01596450805664
F-3.2737369537353516
tp231
a(F38.306251525878906
F-2.7547049522399902
tp232
a(F39.51561737060547
F-2.1056904792785645
tp233
a(F42.243221282958984
F-1.4147132635116577
tp234
a(F45.214324951171875
F-0.5092364549636841
tp235
a(F47.8890380859375
F0.1943703293800354
tp236
a(F50.01181411743164
F0.7171177268028259
tp237
a(F51.62445831298828
F1.0133671760559082
tp238
a(F52.675289154052734
F1.1587822437286377
tp239
a(F53.1663703918457
F1.1490360498428345
tp240
a(F53.07246398925781
F0.9512117505073547
tp241
a(F52.335670471191406
F0.5599917769432068
tp242
a(F50.89440155029297
F0.044446397572755814
tp243
a(F47.424720764160156
F-0.8002299666404724
tp244
a(F43.54240036010742
F-1.694454312324524
tp245
a(F42.267887115478516
F-2.1699326038360596
tp246
a(F40.801551818847656
F-2.5062830448150635
tp247
a(F39.30817413330078
F-2.72513484954834
tp248
a(F37.97886657714844
F-2.834679365158081
tp249
a(F36.943199157714844
F-2.8486156463623047
tp250
a(F36.359249114990234
F-2.77392578125
tp251
a(F36.366859436035156
F-2.5865206718444824
tp252
a(F37.01432418823242
F-2.3451194763183594
tp253
a(F38.28993606567383
F-1.898349404335022
tp254
a(F40.063419342041016
F-1.6339211463928223
tp255
a(F42.21241760253906
F-1.3947997093200684
tp256
a(F42.84941864013672
F-1.316192865371704
tp257
a(F45.69656753540039
F-1.0181015729904175
tp258
a(F47.00404739379883
F-0.7950364351272583
tp259
a(F49.88658905029297
F-0.21911631524562836
tp260
a(F52.46958541870117
F0.24543003737926483
tp261
a(F-61.16653060913086
F30.688434600830078
tp262
a(F-60.61811065673828
F30.35669708251953
tp263
a(F-61.00071716308594
F30.794857025146484
tp264
a(F-62.2324333190918
F31.99364471435547
tp265
a(F-63.72675323486328
F34.120731353759766
tp266
a(F-65.58413696289062
F36.60171127319336
tp267
a(F49.78924560546875
F-1.7037220001220703
tp268
a(F45.520469665527344
F-2.4100050926208496
tp269
a(F40.476463317871094
F-2.923427104949951
tp270
a(F38.82749557495117
F-3.0946836471557617
tp271
a(F37.17927932739258
F-3.1219310760498047
tp272
a(F35.662391662597656
F-3.2546613216400146
tp273
a(F34.509620666503906
F-3.2957162857055664
tp274
a(F33.88710021972656
F-3.2663142681121826
tp275
a(F33.99953842163086
F-3.1850268840789795
tp276
a(F34.93342971801758
F-3.0036468505859375
tp277
a(F35.24656677246094
F-2.741743803024292
tp278
a(F37.67454528808594
F-2.2783901691436768
tp279
a(F40.60609817504883
F-1.7096346616744995
tp280
a(F44.083282470703125
F-1.1852173805236816
tp281
a(F47.199485778808594
F-0.9960448741912842
tp282
a(F49.49609375
F-1.0934916734695435
tp283
a(F50.7309684753418
F-1.6682523488998413
tp284
a(F-72.23030090332031
F42.10947799682617
tp285
a(F-73.23101043701172
F44.09792709350586
tp286
a(F-74.31804656982422
F46.2819709777832
tp287
a(F-75.4181137084961
F48.673160552978516
tp288
a(F41.287010192871094
F-6.1299543380737305
tp289
a(F37.50470733642578
F-6.519193172454834
tp290
a(F35.61199188232422
F-6.6838603019714355
tp291
a(F35.946651458740234
F-6.51667594909668
tp292
a(F36.98324203491211
F-6.055111885070801
tp293
a(F38.65447235107422
F-5.409579277038574
tp294
a(F-31.818172454833984
F-29.217540740966797
tp295
a(F-25.71962547302246
F-30.640527725219727
tp296
a(F-20.266006469726562
F-32.083675384521484
tp297
a(F-15.32802963256836
F-33.47264099121094
tp298
a(F-11.043009757995605
F-34.7884635925293
tp299
a(F-7.6106858253479
F-35.92222595214844
tp300
a(F-5.1417555809021
F-36.873985290527344
tp301
a(F-3.7262353897094727
F-37.595970153808594
tp302
a(F-61.90294647216797
F31.107206344604492
tp303
a(F-63.13644790649414
F32.48576354980469
tp304
a(F-64.70853424072266
F34.36422348022461
tp305
a(F-66.32586669921875
F36.67567825317383
tp306
a(F-69.5636215209961
F41.380332946777344
tp307
a(F11.296422004699707
F-45.61869812011719
tp308
a(F6.7663164138793945
F-45.327335357666016
tp309
a(F2.8971521854400635
F-44.94970703125
tp310
a(F0.22072704136371613
F-44.501277923583984
tp311
a(F-0.8780720233917236
F-44.03660202026367
tp312
a(F-0.3793613016605377
F-43.65119171142578
tp313
a(F1.42762291431427
F-43.32547378540039
tp314
a(F4.078840255737305
F-43.04472351074219
tp315
a(F7.07326078414917
F-42.833656311035156
tp316
a(F9.97492790222168
F-42.729827880859375
tp317
a(F12.407123565673828
F-42.726871490478516
tp318
a(F14.141448020935059
F-42.84812927246094
tp319
a(F14.99637508392334
F-43.083805084228516
tp320
a(F-71.21409606933594
F37.311126708984375
tp321
a(F-72.04790496826172
F38.599998474121094
tp322
a(F-73.517578125
F40.94397735595703
tp323
a(F-75.35316467285156
F44.000186920166016
tp324
a(F-77.2327880859375
F47.43585968017578
tp325
a(F-79.09390258789062
F50.921329498291016
tp326
a(F32.4022216796875
F-6.956845283508301
tp327
a(F28.6662540435791
F-7.43192195892334
tp328
a(F25.07015609741211
F-7.676117420196533
tp329
a(F-22.049522399902344
F-40.73359680175781
tp330
a(F1.8002022504806519
F-31.620084762573242
tp331
a(F0.9627636075019836
F-31.311622619628906
tp332
a(F1.1748160123825073
F-31.09088897705078
tp333
a(F2.309319019317627
F-30.940532684326172
tp334
a(F4.319280624389648
F-30.857284545898438
tp335
a(F-52.171852111816406
F-23.415904998779297
tp336
a(F-48.234771728515625
F-24.79658317565918
tp337
a(F-43.21370315551758
F-26.449514389038086
tp338
a(F-37.3033447265625
F-28.28667640686035
tp339
a(F36.216224670410156
F-3.6244781017303467
tp340
a(F42.01054000854492
F-2.292938232421875
tp341
a(F47.596683502197266
F-1.0441328287124634
tp342
a(F-70.33527374267578
F36.21955108642578
tp343
a(F-67.23863220214844
F32.488311767578125
tp344
a(F-64.35983276367188
F29.545560836791992
tp345
a(F-62.00105667114258
F27.409099578857422
tp346
a(F-60.25059509277344
F26.028079986572266
tp347
a(F-59.14497756958008
F25.242725372314453
tp348
a(F-58.36739730834961
F25.175886154174805
tp349
a(F-58.032997131347656
F25.223569869995117
tp350
a(F-57.9344596862793
F25.506441116333008
tp351
a(F-57.87200927734375
F25.924495697021484
tp352
a(F-55.871002197265625
F28.75702476501465
tp353
a(F-56.47773361206055
F28.247323989868164
tp354
a(F-56.75035095214844
F27.993101119995117
tp355
a(F-56.88641357421875
F27.76087188720703
tp356
a(F-56.863616943359375
F27.65152359008789
tp357
a(F-56.87965393066406
F27.431232452392578
tp358
a(F63.803714752197266
F-0.8717959523200989
tp359
a(F63.641300201416016
F-1.0084244012832642
tp360
a(F63.4195442199707
F-1.1759377717971802
tp361
a(F63.17194747924805
F-1.362508773803711
tp362
a(F62.91428756713867
F-1.4752013683319092
tp363
a(F62.63901901245117
F-1.5929423570632935
tp364
a(F62.36824417114258
F-1.659179925918579
tp365
a(F62.09556579589844
F-1.741352915763855
tp366
a(F61.78028106689453
F-1.786968469619751
tp367
a(F61.42726516723633
F-1.9043360948562622
tp368
a(F60.95854568481445
F-2.0477986335754395
tp369
a(F60.3780517578125
F-2.277172803878784
tp370
a(F-60.6443977355957
F30.686019897460938
tp371
a(F-62.32311248779297
F32.460418701171875
tp372
a(F-64.1731185913086
F34.715293884277344
tp373
a(F-66.14692687988281
F37.3144645690918
tp374
a(F-68.07279968261719
F40.06800842285156
tp375
a(F-69.88463592529297
F42.90220260620117
tp376
a(F-71.56372833251953
F45.71347427368164
tp377
a(F-73.19086456298828
F48.22273254394531
tp378
a(F-74.76953125
F50.612220764160156
tp379
a(F-76.22334289550781
F52.68069839477539
tp380
a(F18.456552505493164
F-35.357933044433594
tp381
a(F18.309127807617188
F-35.04722213745117
tp382
a(F19.30181121826172
F-34.67710494995117
tp383
a(F21.08514976501465
F-34.296417236328125
tp384
a(F23.377941131591797
F-33.9380989074707
tp385
a(F26.007436752319336
F-33.598026275634766
tp386
a(F28.882190704345703
F-33.301490783691406
tp387
a(F39.20048522949219
F-7.759625434875488
tp388
a(F42.43590545654297
F-6.801761627197266
tp389
a(F45.79633331298828
F-5.943323612213135
tp390
a(F48.890220642089844
F-5.23012113571167
tp391
a(F51.591304779052734
F-4.675568580627441
tp392
a(F53.82896423339844
F-4.215029239654541
tp393
a(F55.794471740722656
F-3.8633475303649902
tp394
a(F57.57875442504883
F-3.5131306648254395
tp395
a(F59.25564956665039
F-3.1278862953186035
tp396
a(F60.857688903808594
F-2.717456102371216
tp397
a(F62.29593276977539
F-2.320467472076416
tp398
a(F63.541015625
F-1.9428861141204834
tp399
a(F62.619117736816406
F-2.3393099308013916
tp400
a(F64.26300811767578
F-2.0624449253082275
tp401
a(F65.06086730957031
F-2.897090435028076
tp402
a(F65.45121765136719
F-2.6801822185516357
tp403
a(F65.30906677246094
F-2.641991138458252
tp404
a(F36.772010803222656
F-45.194732666015625
tp405
a(F54.92893981933594
F-31.04360008239746
tp406
a(F53.300106048583984
F-31.295860290527344
tp407
a(F51.87627410888672
F-31.412405014038086
tp408
a(F50.74483871459961
F-31.421144485473633
tp409
a(F49.810523986816406
F-31.34450912475586
tp410
a(F49.002525329589844
F-31.20816421508789
tp411
a(F48.257755279541016
F-31.085657119750977
tp412
a(F47.48358917236328
F-30.999963760375977
tp413
a(F46.59638977050781
F-30.994428634643555
tp414
a(F45.459842681884766
F-31.108015060424805
tp415
a(F43.91792678833008
F-31.399471282958984
tp416
a(F41.83024215698242
F-31.832290649414062
tp417
a(F39.11099624633789
F-32.40406036376953
tp418
a(F45.45255661010742
F-6.702788829803467
tp419
a(F41.5909309387207
F-7.5131378173828125
tp420
a(F38.340972900390625
F-8.01850700378418
tp421
a(F35.95133590698242
F-8.209830284118652
tp422
a(F34.608158111572266
F-8.045381546020508
tp423
a(F34.35917663574219
F-7.523599147796631
tp424
a(F35.07533645629883
F-6.828572750091553
tp425
a(F36.54031753540039
F-5.983028888702393
tp426
a(F38.447994232177734
F-5.1092963218688965
tp427
a(F40.54667663574219
F-4.238447189331055
tp428
a(F42.62997817993164
F-3.4581103324890137
tp429
a(F44.58066940307617
F-2.8538167476654053
tp430
a(F46.344539642333984
F-2.4107778072357178
tp431
a(F47.83552169799805
F-2.118083953857422
tp432
a(F49.06296157836914
F-1.9104536771774292
tp433
a(F50.02256774902344
F-1.8353426456451416
tp434
a(F50.77230453491211
F-1.8253906965255737
tp435
a(F51.28898239135742
F-1.9223668575286865
tp436
a(F51.598941802978516
F-2.0395641326904297
tp437
a(F51.7214241027832
F-2.1700501441955566
tp438
a(F51.682952880859375
F-2.277146577835083
tp439
a(F51.61263656616211
F-2.368438482284546
tp440
a(F51.54403305053711
F-2.4313786029815674
tp441
a(F51.499534606933594
F-2.430051565170288
tp442
a(F51.48823928833008
F-2.367175340652466
tp443
a(F51.52363204956055
F-2.280430793762207
tp444
a(F51.60573959350586
F-2.2502121925354004
tp445
a(F51.731388092041016
F-2.209681987762451
tp446
a(F51.830345153808594
F-2.2274374961853027
tp447
a(F51.845638275146484
F-2.3059918880462646
tp448
a(F51.717464447021484
F-2.4158644676208496
tp449
a(F51.409996032714844
F-2.557668685913086
tp450
a(F50.86744689941406
F-2.8013103008270264
tp451
a(F50.08543014526367
F-3.126776695251465
tp452
a(F48.971839904785156
F-3.573713541030884
tp453
a(F47.57339096069336
F-4.047222137451172
tp454
a(F45.879966735839844
F-4.706921577453613
tp455
a(F43.90261459350586
F-5.449981689453125
tp456
a(F41.58139419555664
F-6.237974166870117
tp457
a(F38.84663009643555
F-7.016237258911133
tp458
a(F35.670745849609375
F-7.822745323181152
tp459
a(F32.11016845703125
F-8.426610946655273
tp460
a(F28.466737747192383
F-8.875737190246582
tp461
a(F-83.31391143798828
F59.776893615722656
tp462
a(F-84.24036407470703
F61.26988983154297
tp463
a(F-85.08149719238281
F62.351585388183594
tp464
a(F18.606935501098633
F-8.401305198669434
tp465
a(F21.81383514404297
F-7.547765254974365
tp466
a(F25.257183074951172
F-6.6031904220581055
tp467
a(F28.69550895690918
F-5.618889808654785
tp468
a(F31.920032501220703
F-4.5748162269592285
tp469
a(F34.48975372314453
F-4.224195957183838
tp470
a(F36.45522689819336
F-3.9357895851135254
tp471
a(F27.8471622467041
F-29.785829544067383
tp472
a(F29.926513671875
F-29.741714477539062
tp473
a(F31.08271598815918
F-29.873367309570312
tp474
a(F31.43590545654297
F-30.10344123840332
tp475
a(F31.16194725036621
F-30.403274536132812
tp476
a(F30.345144271850586
F-30.705245971679688
tp477
a(F29.15892219543457
F-30.97662925720215
tp478
a(F-75.51728057861328
F43.264408111572266
tp479
a(F-75.89456176757812
F44.12871170043945
tp480
a(F-76.2857666015625
F45.14358139038086
tp481
a(F-76.68878173828125
F46.03496551513672
tp482
a(F23.18192481994629
F-31.09423828125
tp483
a(F22.292593002319336
F-31.044384002685547
tp484
a(F21.251148223876953
F-31.023330688476562
tp485
a(F19.95132827758789
F-31.075237274169922
tp486
a(F18.362985610961914
F-31.189617156982422
tp487
a(F16.43902587890625
F-31.377023696899414
tp488
a(F-81.46922302246094
F55.515533447265625
tp489
a(F-82.04938507080078
F56.99717330932617
tp490
a(F-82.67076873779297
F58.33155059814453
tp491
a(F-83.1391372680664
F59.703983306884766
tp492
a(F-83.45178985595703
F60.786277770996094
tp493
a(F-53.50654983520508
F-22.258438110351562
tp494
a(F-53.88105773925781
F-22.091951370239258
tp495
a(F-53.02861404418945
F-22.501461029052734
tp496
a(F6.450337886810303
F-33.19091796875
tp497
a(F10.272969245910645
F-33.458499908447266
tp498
a(F14.925822257995605
F-33.79845428466797
tp499
a(F30.38591194152832
F-9.20727825164795
tp500
a(F32.630523681640625
F-9.419546127319336
tp501
a(F31.92418670654297
F-35.508724212646484
tp502
a(F41.208885192871094
F-9.833256721496582
tp503
a(F48.89411544799805
F-9.975613594055176
tp504
a(F57.643314361572266
F-10.26093864440918
tp505
a(F67.1396484375
F-10.613961219787598
tp506
a(F77.27745056152344
F-10.892156600952148
tp507
a(F88.02351379394531
F-11.063775062561035
tp508
a(F99.25375366210938
F-11.035826683044434
tp509
a(F110.7095718383789
F-10.780141830444336
tp510
a(F122.23007202148438
F-10.20650863647461
tp511
a(F133.7147674560547
F-9.3049898147583
tp512
a(F145.29710388183594
F-8.033117294311523
tp513
a(F156.91551208496094
F-6.328216552734375
tp514
a(F168.54063415527344
F-4.137588024139404
tp515
a(F179.799560546875
F-1.4160211086273193
tp516
a(F190.37217712402344
F2.168538808822632
tp517
a(F200.50257873535156
F6.246452331542969
tp518
a(F210.42904663085938
F11.099611282348633
tp519
a(F219.48158264160156
F16.540958404541016
tp520
a(F227.6686248779297
F21.997535705566406
tp521
a(F238.03768920898438
F-2.5909459590911865
tp522
a(F249.8197021484375
F6.016151428222656
tp523
a(F261.0262756347656
F16.499771118164062
tp524
a(F194.2212677001953
F83.39297485351562
tp525
a(F197.0355682373047
F85.61009216308594
tp526
a(F201.6765594482422
F88.35552215576172
tp527
a(F204.6038818359375
F90.68701171875
tp528
a(F208.14752197265625
F93.46469116210938
tp529
a(F210.67724609375
F95.74451446533203
tp530
a(F213.65504455566406
F97.91133117675781
tp531
aNaNaNaNaNaNaNaNaNaNaNaNaNa(F197.63058471679688
F180.3579864501953
tp532
a(F195.8870849609375
F182.66067504882812
tp533
a(F195.36773681640625
F184.4242401123047
tp534
a(F197.49301147460938
F182.06491088867188
tp535
a(F196.2355499267578
F178.46385192871094
tp536
aNaNaNaNaNaNaNaNaNaNaNaNaNaNaNaNaNaNaNaNaNaNaNaNaNaNaNaNaNaNaNaNaNaNaNaNaNaNaNaNaNaNaNaNaNaNaNaNaNaNaNaNaNaNaNaNaNaNaNaNaNaNaNaNaNaNaNaNaNaNaNaNaNaNaNaNaNaNaNaNaNaNaNaNaNaNaNaNaNaNaNaNaNaNaNaNaNaNaNaNaNa(F235.92098999023438
F7.2855119705200195
tp537
a(F233.00347900390625
F1.7243746519088745
tp538
a(F229.75518798828125
F-4.098389625549316
tp539
a(F228.26878356933594
F42.406532287597656
tp540
a(F226.44537353515625
F40.892215728759766
tp541
a(F224.6824493408203
F39.0521240234375
tp542
a(F222.83998107910156
F36.96448516845703
tp543
a(F220.22305297851562
F34.48032760620117
tp544
a(F217.61749267578125
F32.07550048828125
tp545
a(F214.88865661621094
F29.609432220458984
tp546
a(F212.23477172851562
F27.210773468017578
tp547
a(F208.77001953125
F24.949819564819336
tp548
a(F205.6658935546875
F22.757034301757812
tp549
a(F202.52479553222656
F20.531293869018555
tp550
a(F199.13455200195312
F18.459205627441406
tp551
a.