(lp0
NaNaNaNaNaNaNaNaNaNaNaNaNaNaNaNaNaNaNaNaNaNaNaNaNaNaNaNaNaNaNaNaNaNaNa(F-91.97484588623047
F67.1458969116211
tp1
a(F-76.6734390258789
F60.78639221191406
tp2
a(F-60.236297607421875
F53.97409439086914
tp3
a(F-48.45956802368164
F46.27308654785156
tp4
a(F-36.94440460205078
F38.33538055419922
tp5
a(F-68.2547607421875
F45.47214889526367
tp6
a(F-13.90402603149414
F22.90387725830078
tp7
a(F-50.260189056396484
F34.64974594116211
tp8
a(F2.0103919506073
F15.4155855178833
tp9
a(F-36.399658203125
F25.545122146606445
tp10
a(F-30.66701889038086
F21.24158477783203
tp11
a(F-25.678409576416016
F17.145322799682617
tp12
a(F-21.532825469970703
F13.234543800354004
tp13
a(F-18.330913543701172
F9.237598419189453
tp14
a(F-16.1717586517334
F5.40484619140625
tp15
a(F-14.96823787689209
F1.4012162685394287
tp16
a(F-28.704299926757812
F127.64823913574219
tp17
a(F-45.58017349243164
F125.63946533203125
tp18
a(F-45.18558120727539
F124.68423461914062
tp19
a(F-38.720821380615234
F120.30913543701172
tp20
a(F-20.942771911621094
F-15.749641418457031
tp21
a(F-23.597232818603516
F-18.06746482849121
tp22
a(F-26.385175704956055
F-20.02322769165039
tp23
a(F-29.161819458007812
F-21.79459571838379
tp24
a(F-31.859987258911133
F-23.118337631225586
tp25
a(F-34.419219970703125
F-23.88132667541504
tp26
a(F-36.75458526611328
F-23.98980140686035
tp27
a(F113.44585418701172
F150.26470947265625
tp28
a(F112.26337432861328
F149.76382446289062
tp29
a(F111.66371154785156
F149.73695373535156
tp30
a(F111.28876495361328
F150.01519775390625
tp31
a(F110.56022644042969
F149.8966827392578
tp32
a(F109.7503433227539
F149.56004333496094
tp33
a(F109.26184844970703
F149.6381072998047
tp34
a(F108.8883285522461
F149.66571044921875
tp35
a(F117.29222106933594
F191.60777282714844
tp36
a(F116.91468811035156
F190.7742919921875
tp37
a(F77.46614074707031
F99.73152160644531
tp38
a(F78.14195251464844
F99.82221984863281
tp39
a(F78.79535675048828
F100.12842559814453
tp40
a(F113.29631805419922
F167.555908203125
tp41
a(F112.71117401123047
F163.76693725585938
tp42
a(F113.45613861083984
F163.19967651367188
tp43
a(F114.99916076660156
F163.50843811035156
tp44
a(F116.36148071289062
F164.41929626464844
tp45
a(F118.14408111572266
F166.1029510498047
tp46
a(F119.1464614868164
F167.58416748046875
tp47
a(F119.65139770507812
F168.5258026123047
tp48
a(F56.76480484008789
F-34.32864761352539
tp49
a(F114.53425598144531
F166.72903442382812
tp50
a(F114.70633697509766
F174.83245849609375
tp51
a(F113.3965835571289
F176.8401336669922
tp52
a(F36.83720397949219
F-39.592193603515625
tp53
a(F27.88857078552246
F-40.840457916259766
tp54
a(F18.142009735107422
F-41.8963737487793
tp55
a(F8.11273193359375
F-42.64932632446289
tp56
a(F-1.5247775316238403
F-42.991798400878906
tp57
a(F-9.995946884155273
F-43.22791290283203
tp58
a(F-20.271488189697266
F-43.74317169189453
tp59
a(F-21.346193313598633
F-43.98219680786133
tp60
a(F-19.720935821533203
F-44.75303268432617
tp61
a(F-15.942066192626953
F-45.584434509277344
tp62
a(F-10.461325645446777
F-46.2979621887207
tp63
a(F-3.7148797512054443
F-46.655487060546875
tp64
a(F4.48076057434082
F-46.711544036865234
tp65
a(F13.649168014526367
F-46.418479919433594
tp66
a(F23.593334197998047
F-45.682334899902344
tp67
a(F33.5842170715332
F-44.034324645996094
tp68
a(F43.13318634033203
F-42.227989196777344
tp69
a(F52.058231353759766
F-40.19396209716797
tp70
a(F59.26537322998047
F-38.55376434326172
tp71
a(F64.18645477294922
F-37.08491134643555
tp72
a(F66.22223663330078
F-35.9818000793457
tp73
a(F65.66771697998047
F-35.36332321166992
tp74
a(F62.63753128051758
F-35.55516815185547
tp75
a(F55.06287384033203
F-35.19548034667969
tp76
a(F-0.1567022204399109
F-15.957634925842285
tp77
a(F-4.116784572601318
F-16.030101776123047
tp78
a(F-8.668838500976562
F-16.22646713256836
tp79
a(F33.72304916381836
F-39.899658203125
tp80
a(F24.419647216796875
F-40.26872634887695
tp81
a(F14.052302360534668
F-40.46324920654297
tp82
a(F3.1698718070983887
F-40.61167526245117
tp83
a(F-6.690284729003906
F-40.82660675048828
tp84
a(F-13.363176345825195
F-41.17436218261719
tp85
a(F-15.640734672546387
F-41.66843795776367
tp86
a(F-14.047537803649902
F-42.18842315673828
tp87
a(F-9.720955848693848
F-42.59553146362305
tp88
a(F-3.7996346950531006
F-42.64558792114258
tp89
a(F3.5879454612731934
F-42.39835739135742
tp90
a(F12.361302375793457
F-42.016361236572266
tp91
a(F22.397748947143555
F-41.1820068359375
tp92
a(F33.30055618286133
F-39.92991256713867
tp93
a(F44.739009857177734
F-37.98069381713867
tp94
a(F55.951385498046875
F-35.6588134765625
tp95
a(F66.30412292480469
F-32.623802185058594
tp96
a(F74.66903686523438
F-29.85137367248535
tp97
a(F80.93518829345703
F-27.444576263427734
tp98
a(F85.46817779541016
F-25.3306827545166
tp99
a(F85.05667114257812
F-16.82044219970703
tp100
a(F77.44181823730469
F-16.80829620361328
tp101
a(F70.2192611694336
F-17.34994888305664
tp102
a(F61.78968811035156
F-18.525421142578125
tp103
a(F7.229737281799316
F-6.971502780914307
tp104
a(F2.415800094604492
F-7.135972499847412
tp105
a(F-2.7423648834228516
F-7.324631690979004
tp106
a(F-6.548520088195801
F44.81911087036133
tp107
a(F-11.647049903869629
F45.12716293334961
tp108
a(F-15.902480125427246
F45.08951950073242
tp109
a(F-19.035791397094727
F44.584861755371094
tp110
a(F-20.67527961730957
F42.694156646728516
tp111
a(F-21.209659576416016
F41.00883102416992
tp112
a(F-20.41693115234375
F39.72369384765625
tp113
a(F-18.551048278808594
F39.1416015625
tp114
a(F-15.759710311889648
F38.80604553222656
tp115
a(F-12.085443496704102
F38.55059051513672
tp116
a(F-8.190075874328613
F39.09578323364258
tp117
a(F-4.16493034362793
F41.265541076660156
tp118
a(F-0.0048796250484883785
F43.384735107421875
tp119
a(F4.389089584350586
F45.20293045043945
tp120
a(F8.748703956604004
F46.69609069824219
tp121
a(F12.48560619354248
F47.88824462890625
tp122
a(F15.919512748718262
F49.015655517578125
tp123
a(F19.045339584350586
F49.988468170166016
tp124
a(F21.379650115966797
F50.43293762207031
tp125
a(F22.783849716186523
F50.595767974853516
tp126
a(F73.92326354980469
F-17.78423500061035
tp127
a(F72.73491668701172
F-18.305627822875977
tp128
a(F71.20482635498047
F-18.8165283203125
tp129
a(F68.91787719726562
F-19.312353134155273
tp130
a(F65.48199462890625
F-19.74053192138672
tp131
a(F61.85652542114258
F-20.312938690185547
tp132
a(F57.23818588256836
F-20.64237403869629
tp133
a(F52.341575622558594
F-20.956972122192383
tp134
a(F47.78571701049805
F-21.328109741210938
tp135
a(F44.166812896728516
F-21.869680404663086
tp136
a(F41.94123840332031
F-22.515626907348633
tp137
a(F41.371131896972656
F-23.318967819213867
tp138
a(F37.132080078125
F-23.83936882019043
tp139
a(F35.433982849121094
F-24.049205780029297
tp140
a(F7.495540142059326
F50.616233825683594
tp141
a(F9.617473602294922
F52.28016662597656
tp142
a(F12.039060592651367
F53.47813415527344
tp143
a(F14.335676193237305
F54.54813003540039
tp144
a(F17.182479858398438
F56.286991119384766
tp145
a(F19.813371658325195
F58.03428268432617
tp146
a(F23.012853622436523
F59.779232025146484
tp147
a(F26.509248733520508
F61.51235580444336
tp148
a(F29.851890563964844
F63.05490493774414
tp149
a(F32.51974105834961
F64.21795654296875
tp150
a(F34.119651794433594
F64.8016586303711
tp151
a(F34.91720199584961
F65.43360137939453
tp152
a(F34.87208938598633
F65.80559539794922
tp153
a(F34.58999252319336
F65.90087890625
tp154
a(F32.942989349365234
F65.361572265625
tp155
a(F31.518451690673828
F64.58605194091797
tp156
a(F30.101194381713867
F63.8026008605957
tp157
a(F27.31232452392578
F64.04972839355469
tp158
a(F77.43524932861328
F-6.824248790740967
tp159
a(F68.98748779296875
F-8.329771995544434
tp160
a(F-25.473581314086914
F125.06951904296875
tp161
a(F-53.46493148803711
F163.86029052734375
tp162
a(F-69.62615966796875
F186.2312774658203
tp163
a.