(lp0
NaNaNaNaNaNaNaNaNaNaNaNaNaNaNaNaNaNaNaNaNaNaNaNaNaNaNaNaNaNaNaNaNaNaNaNaNaNaNaNaNaNaNa(F119.60311889648438
F27.66176986694336
tp1
a(F113.39226531982422
F12.943785667419434
tp2
a(F108.43876647949219
F-1.0669611692428589
tp3
a(F104.40592956542969
F-13.857643127441406
tp4
a(F100.32212829589844
F-24.369632720947266
tp5
a(F96.69657897949219
F-32.16794204711914
tp6
a(F93.20852661132812
F-38.01022720336914
tp7
a(F75.07036590576172
F87.60902404785156
tp8
a(F68.22384643554688
F108.58557891845703
tp9
a(F67.71897888183594
F136.92507934570312
tp10
a(F65.68939208984375
F148.51132202148438
tp11
a(F78.33802032470703
F125.71492004394531
tp12
a(F76.28313446044922
F124.9558334350586
tp13
a(F82.70967102050781
F112.7216567993164
tp14
a(F80.53727722167969
F113.04243469238281
tp15
a(F71.11054992675781
F145.3585205078125
tp16
a(F34.69507598876953
F37.98283767700195
tp17
a(F73.01235961914062
F145.78111267089844
tp18
a(F34.58732986450195
F39.31917190551758
tp19
a(F42.14909744262695
F40.1047248840332
tp20
a(F51.60074234008789
F38.097618103027344
tp21
a(F62.547611236572266
F40.68791961669922
tp22
a(F83.17622375488281
F44.65644073486328
tp23
a(F94.07188415527344
F46.47676467895508
tp24
a(F100.26020812988281
F47.62881851196289
tp25
a(F103.04029846191406
F48.71441650390625
tp26
a(F100.87443542480469
F49.44577407836914
tp27
a(F94.2811508178711
F50.153831481933594
tp28
a(F83.3700180053711
F50.19660186767578
tp29
a(F68.20774841308594
F48.86785888671875
tp30
a(F50.20953369140625
F48.442970275878906
tp31
a(F32.24196243286133
F50.21794509887695
tp32
a(F-10.697660446166992
F22.07728385925293
tp33
a(F-16.0473690032959
F26.67072105407715
tp34
a(F-11.576250076293945
F27.9506893157959
tp35
a(F7.750584125518799
F27.112646102905273
tp36
a(F24.01188087463379
F25.06572151184082
tp37
a(F40.62005615234375
F22.740741729736328
tp38
a(F55.517086029052734
F20.462236404418945
tp39
a(F72.42578125
F17.336021423339844
tp40
a(F74.4623031616211
F16.294090270996094
tp41
a(F70.39852142333984
F16.129514694213867
tp42
a(F60.5055046081543
F16.50304412841797
tp43
a(F46.1053466796875
F16.324995040893555
tp44
a(F29.09922218322754
F19.216182708740234
tp45
a(F14.282962799072266
F22.697872161865234
tp46
a(F4.616978645324707
F26.057659149169922
tp47
a(F6.126647472381592
F29.308244705200195
tp48
a(F31.920501708984375
F60.5284309387207
tp49
a(F50.372718811035156
F58.117000579833984
tp50
a(F63.856788635253906
F54.91380310058594
tp51
a(F79.5882568359375
F56.73143768310547
tp52
a(F84.52679443359375
F57.638694763183594
tp53
a(F84.22865295410156
F58.13945007324219
tp54
a(F78.96802520751953
F58.031166076660156
tp55
a(F67.96144104003906
F56.515098571777344
tp56
a(F53.64466094970703
F56.199275970458984
tp57
a(F40.28055191040039
F59.483665466308594
tp58
a(F31.291759490966797
F63.3104133605957
tp59
a(F30.017894744873047
F62.18929672241211
tp60
a(F34.63742446899414
F60.22199630737305
tp61
a(F53.13024139404297
F56.166419982910156
tp62
a(F66.82599639892578
F51.737159729003906
tp63
a(F81.80886840820312
F54.85742950439453
tp64
a(F85.34457397460938
F57.456363677978516
tp65
a(F84.47468566894531
F57.386512756347656
tp66
a(F77.45944213867188
F55.47824478149414
tp67
a(F69.96128845214844
F54.048255920410156
tp68
a(F56.47561264038086
F56.163360595703125
tp69
a(F43.98126983642578
F60.03453826904297
tp70
a(F34.88400650024414
F65.08983612060547
tp71
a(F28.24534034729004
F68.51383972167969
tp72
a(F29.00546646118164
F67.96947479248047
tp73
a(F36.45684051513672
F62.05023193359375
tp74
a(F44.11592102050781
F56.56510543823242
tp75
a(F51.97422790527344
F50.9752082824707
tp76
a(F67.23851013183594
F44.49452590942383
tp77
a(F76.49081420898438
F41.138450622558594
tp78
a(F87.562744140625
F59.479522705078125
tp79
a(F92.44465637207031
F72.40548706054688
tp80
a(F96.61329650878906
F79.23210906982422
tp81
a(F97.80274200439453
F86.42169952392578
tp82
a(F95.8575668334961
F89.23558807373047
tp83
a(F92.27775573730469
F89.85258483886719
tp84
a(F88.132080078125
F82.1351089477539
tp85
a(F78.85383605957031
F64.3427963256836
tp86
a(F65.24945831298828
F54.07062530517578
tp87
a(F51.31622314453125
F51.41818618774414
tp88
a(F39.23623275756836
F54.73152160644531
tp89
a(F29.104215621948242
F59.28926086425781
tp90
a(F23.34641456604004
F59.11329650878906
tp91
a(F17.914955139160156
F62.49205017089844
tp92
a(F19.739044189453125
F62.556461334228516
tp93
a(F28.56367301940918
F53.694644927978516
tp94
a(F34.42271041870117
F49.10029983520508
tp95
a(F44.54351043701172
F42.52455139160156
tp96
a(F55.10921859741211
F37.509796142578125
tp97
a(F70.22830963134766
F37.10054016113281
tp98
a(F74.4074478149414
F47.745418548583984
tp99
a(F81.62471771240234
F47.28287887573242
tp100
a(F82.10562896728516
F45.695465087890625
tp101
a(F76.26557159423828
F44.16399383544922
tp102
a(F68.65910339355469
F41.73991012573242
tp103
a(F59.70781326293945
F39.314395904541016
tp104
a(F49.325164794921875
F38.281253814697266
tp105
a(F40.47813034057617
F38.43975830078125
tp106
a(F27.000131607055664
F42.95746994018555
tp107
a(F23.006322860717773
F46.0262336730957
tp108
a(F20.96914291381836
F48.11551284790039
tp109
a(F22.653871536254883
F47.564579010009766
tp110
a(F30.573806762695312
F43.284698486328125
tp111
a(F37.53663635253906
F39.49901580810547
tp112
a(F45.537315368652344
F36.779422760009766
tp113
a(F53.41087341308594
F40.97270965576172
tp114
a(F64.77770233154297
F64.6529769897461
tp115
a(F69.18914794921875
F76.8634262084961
tp116
a(F73.70196533203125
F87.43496704101562
tp117
a(F73.81256103515625
F88.03694152832031
tp118
a(F72.38407897949219
F87.33439636230469
tp119
a(F69.68579864501953
F85.55581665039062
tp120
a(F68.33556365966797
F79.45183563232422
tp121
a(F65.09273529052734
F69.3489761352539
tp122
a(F60.84581756591797
F61.77116394042969
tp123
a(F55.780357360839844
F54.28533935546875
tp124
a(F51.67256546020508
F46.63606643676758
tp125
a(F46.472938537597656
F42.13499069213867
tp126
a(F38.49843215942383
F41.89986801147461
tp127
a(F36.325382232666016
F46.95976638793945
tp128
a(F35.13499069213867
F51.20184326171875
tp129
a(F35.503456115722656
F52.1735954284668
tp130
a(F35.98342514038086
F50.356895446777344
tp131
a(F37.162349700927734
F49.02762985229492
tp132
a(F38.30104064941406
F48.13643264770508
tp133
a(F39.49419021606445
F47.615562438964844
tp134
a(F40.89365768432617
F47.06248474121094
tp135
a(F21.561147689819336
F16.315690994262695
tp136
a(F22.392715454101562
F15.66812515258789
tp137
a(F23.653959274291992
F16.350330352783203
tp138
a(F25.905332565307617
F16.90464210510254
tp139
a(F29.368690490722656
F17.015811920166016
tp140
a(F33.859962463378906
F16.726520538330078
tp141
a(F39.11915588378906
F16.08466911315918
tp142
a(F44.95368194580078
F15.310733795166016
tp143
a(F53.94768524169922
F14.45610523223877
tp144
a(F60.255069732666016
F13.934027671813965
tp145
a(F64.96810913085938
F13.600549697875977
tp146
a(F68.3421859741211
F13.395251274108887
tp147
a(F70.54540252685547
F13.313117980957031
tp148
a(F71.7239761352539
F13.311209678649902
tp149
a(F72.14295959472656
F13.448990821838379
tp150
a(F71.96466064453125
F13.621337890625
tp151
a(F71.36874389648438
F13.7982816696167
tp152
a(F70.45116424560547
F14.009183883666992
tp153
a(F69.19407653808594
F14.210010528564453
tp154
a(F67.42623138427734
F14.385907173156738
tp155
a(F64.84545135498047
F14.561633110046387
tp156
a(F61.43183135986328
F14.739147186279297
tp157
a(F57.559059143066406
F14.913979530334473
tp158
a(F53.43806838989258
F15.098265647888184
tp159
a(F49.09079360961914
F15.439525604248047
tp160
a(F44.535221099853516
F15.951452255249023
tp161
a(F39.94304275512695
F15.205757141113281
tp162
a(F31.89642333984375
F17.101757049560547
tp163
a(F28.495773315429688
F15.602831840515137
tp164
a(F26.71442222595215
F15.392557144165039
tp165
a(F27.83952522277832
F14.552471160888672
tp166
a(F32.45268249511719
F15.248475074768066
tp167
a(F37.69973373413086
F15.212148666381836
tp168
a(F43.34977340698242
F14.6671142578125
tp169
a(F49.597042083740234
F13.913293838500977
tp170
a(F61.24492263793945
F12.818229675292969
tp171
a(F69.32423400878906
F12.161065101623535
tp172
a(F76.06405639648438
F11.583625793457031
tp173
a(F75.35297393798828
F11.372444152832031
tp174
a(F70.50462341308594
F11.359064102172852
tp175
a(F62.29267120361328
F11.659942626953125
tp176
a(F51.42041015625
F12.196616172790527
tp177
a(F38.81454849243164
F13.293797492980957
tp178
a(F25.80044937133789
F14.858452796936035
tp179
a(F10.60301685333252
F17.036197662353516
tp180
a(F7.939264297485352
F18.384601593017578
tp181
a(F16.334123611450195
F18.63028335571289
tp182
a(F27.5727596282959
F17.831207275390625
tp183
a(F41.79222869873047
F16.4559268951416
tp184
a(F57.416595458984375
F14.853188514709473
tp185
a(F82.80425262451172
F12.233241081237793
tp186
a(F93.75765228271484
F10.646025657653809
tp187
a(F97.72779083251953
F9.010978698730469
tp188
a(F91.95478057861328
F8.358275413513184
tp189
a(F82.15332794189453
F8.219252586364746
tp190
a(F68.69889831542969
F8.408356666564941
tp191
a(F52.71630859375
F6.860327243804932
tp192
a(F50.63092041015625
F46.193504333496094
tp193
a(F38.563209533691406
F44.156028747558594
tp194
a(F29.894229888916016
F42.4804573059082
tp195
a(F42.45467758178711
F-44.105491638183594
tp196
a(F53.982460021972656
F-45.05860137939453
tp197
a(F65.12299346923828
F-45.35652542114258
tp198
a(F77.76046752929688
F-45.38323211669922
tp199
a(F93.13935852050781
F-45.678768157958984
tp200
a(F74.9930191040039
F40.527286529541016
tp201
a(F74.47962188720703
F40.90932083129883
tp202
a(F73.91070556640625
F41.01589584350586
tp203
a(F84.78411865234375
F15.035948753356934
tp204
a(F89.71099853515625
F-9.23185920715332
tp205
a(F92.23028564453125
F-23.570049285888672
tp206
a(F69.05603790283203
F3.162322521209717
tp207
a(F49.76401138305664
F22.91354751586914
tp208
a(F35.92467498779297
F36.131473541259766
tp209
a(F28.660293579101562
F43.88346862792969
tp210
a(F31.815155029296875
F44.07221603393555
tp211
a(F47.17068099975586
F42.71104049682617
tp212
a(F60.41716384887695
F41.5168571472168
tp213
a(F70.43260955810547
F40.582855224609375
tp214
a(F75.76510620117188
F46.07661819458008
tp215
a(F81.25406646728516
F62.59217834472656
tp216
a(F79.55999755859375
F59.3530387878418
tp217
a(F78.06553649902344
F56.76726531982422
tp218
a(F69.18997955322266
F51.38152313232422
tp219
a(F55.146461486816406
F45.55968475341797
tp220
a(F42.82017135620117
F42.95036315917969
tp221
a(F31.0872802734375
F41.940948486328125
tp222
a(F29.00836753845215
F42.17971420288086
tp223
a(F35.53096389770508
F38.461063385009766
tp224
a(F44.67558288574219
F36.89552307128906
tp225
a(F51.90785217285156
F35.8286018371582
tp226
a(F54.51115417480469
F35.79923629760742
tp227
a(F56.44220733642578
F35.89137649536133
tp228
a(F56.56504440307617
F36.13663101196289
tp229
a(F56.60293197631836
F36.26065444946289
tp230
a(F106.7362060546875
F8.710238456726074
tp231
a(F142.20933532714844
F-8.319464683532715
tp232
a(F164.81739807128906
F-14.895392417907715
tp233
a(F181.8823699951172
F-17.88494300842285
tp234
a(F178.84344482421875
F-30.790945053100586
tp235
a(F178.58900451660156
F-29.42812728881836
tp236
a(F178.5072784423828
F-28.473407745361328
tp237
a(F177.56056213378906
F-27.527448654174805
tp238
a(F176.11337280273438
F-27.41412353515625
tp239
a(F172.2859344482422
F-27.097461700439453
tp240
a(F166.6842803955078
F-27.464698791503906
tp241
a(F158.40847778320312
F-28.47646713256836
tp242
a(F146.45765686035156
F-30.29816436767578
tp243
a(F129.25875854492188
F-33.158782958984375
tp244
aNaNaNaNaNaNaNaNaNaNaNaNaNaNaNa(F23.561227798461914
F42.01082992553711
tp245
a(F27.45621109008789
F43.62776565551758
tp246
a(F18.431915283203125
F-46.8753547668457
tp247
a(F27.061622619628906
F-47.753971099853516
tp248
a(F39.959007263183594
F-48.58613204956055
tp249
a(F56.95438003540039
F-49.06282043457031
tp250
a(F77.73246765136719
F-49.65795135498047
tp251
a(F116.61228942871094
F-50.17317199707031
tp252
a(F137.4744873046875
F-49.25624084472656
tp253
a(F166.01718139648438
F-47.65345764160156
tp254
a(F173.38735961914062
F-46.65205764770508
tp255
a(F182.538330078125
F-44.95896530151367
tp256
a(F188.8978271484375
F-43.211509704589844
tp257
a(F192.3279571533203
F-42.1279182434082
tp258
a(F193.30307006835938
F-40.49599075317383
tp259
a(F197.4822540283203
F-40.63106918334961
tp260
a(F198.2316436767578
F-38.00702667236328
tp261
a(F200.89263916015625
F-33.810218811035156
tp262
a(F206.1071014404297
F-29.80714225769043
tp263
a(F201.35092163085938
F-6.027149200439453
tp264
a(F207.04127502441406
F-2.935114860534668
tp265
a(F215.59121704101562
F-0.8835861682891846
tp266
a(F223.04734802246094
F5.02729606628418
tp267
a(F226.97999572753906
F42.87994384765625
tp268
a(F233.0660400390625
F46.14874267578125
tp269
a(F241.61831665039062
F49.15284729003906
tp270
a(F247.84657287597656
F54.12825012207031
tp271
a(F253.41029357910156
F58.89180374145508
tp272
a(F264.5224914550781
F65.82548522949219
tp273
a(F272.9666748046875
F73.14506530761719
tp274
a(F277.3739318847656
F80.7685546875
tp275
aNaNaNaNaNaNaNaNaNaNaNaNa(F137.17800903320312
F17.14800453186035
tp276
a(F113.32906341552734
F3.6051106452941895
tp277
a(F120.7435073852539
F20.254295349121094
tp278
a(F60.86678695678711
F121.92345428466797
tp279
a(F55.3088264465332
F121.96891784667969
tp280
a(F50.00593185424805
F118.53401947021484
tp281
a(F48.410316467285156
F124.5208511352539
tp282
a(F44.608070373535156
F127.60289001464844
tp283
a(F45.54257583618164
F131.8199920654297
tp284
a(F42.810211181640625
F126.49407958984375
tp285
a(F36.78977584838867
F-18.500404357910156
tp286
a(F-37.9023551940918
F-30.742584228515625
tp287
a(F-33.38427734375
F-31.350248336791992
tp288
a(F-21.434364318847656
F-29.681394577026367
tp289
a(F4.535440921783447
F-47.77815628051758
tp290
a(F29.097082138061523
F-45.253517150878906
tp291
a(F67.24838256835938
F-35.100868225097656
tp292
a(F86.27271270751953
F-36.290985107421875
tp293
a(F105.5195541381836
F-30.467792510986328
tp294
a(F132.433837890625
F-28.490633010864258
tp295
a(F157.31173706054688
F-31.073471069335938
tp296
a(F202.50106811523438
F-29.195926666259766
tp297
a(F228.47525024414062
F-21.398359298706055
tp298
a(F221.2138671875
F11.372034072875977
tp299
a(F214.80889892578125
F70.76990509033203
tp300
a(F221.65512084960938
F83.27752685546875
tp301
a(F231.02928161621094
F92.02314758300781
tp302
a(F243.0816192626953
F89.56336975097656
tp303
a(F253.8025665283203
F89.13268280029297
tp304
a(F265.17437744140625
F51.129356384277344
tp305
aNaNaNa(F258.36474609375
F204.14938354492188
tp306
a(F254.0564422607422
F214.93606567382812
tp307
aNaNaNaNaNaNa(F-54.776466369628906
F26.656145095825195
tp308
a(F-47.88617706298828
F19.16370391845703
tp309
a(F-40.43159103393555
F10.82854175567627
tp310
a(F-32.6669807434082
F1.7718114852905273
tp311
a(F-24.740829467773438
F-7.637041091918945
tp312
a(F-17.198495864868164
F-16.717966079711914
tp313
a(F-10.513197898864746
F-24.80840301513672
tp314
a(F-4.827632427215576
F-31.75653076171875
tp315
a(F7.058452606201172
F-15.173477172851562
tp316
a(F5.999803066253662
F-41.096561431884766
tp317
a(F-16.69676399230957
F-50.101463317871094
tp318
a(F-7.01711368560791
F-51.106990814208984
tp319
a(F34.140960693359375
F-41.11577606201172
tp320
a(F44.6507453918457
F-38.383697509765625
tp321
a(F52.8190803527832
F-36.203609466552734
tp322
a(F57.7225456237793
F-35.33580780029297
tp323
a(F59.68033218383789
F-35.78287124633789
tp324
a(F59.66152572631836
F-37.008358001708984
tp325
a(F58.391273498535156
F-38.586795806884766
tp326
a(F56.64470672607422
F-40.2789306640625
tp327
a(F54.94200134277344
F-41.83403015136719
tp328
a(F53.56676483154297
F-43.11639404296875
tp329
a(F52.63745880126953
F-43.975372314453125
tp330
a(F52.33912658691406
F-44.3824577331543
tp331
a(F52.49295425415039
F-44.41839599609375
tp332
a(F52.92617416381836
F-44.250919342041016
tp333
a(F53.48871612548828
F-44.01121520996094
tp334
a(F54.05830001831055
F-43.69487380981445
tp335
a(F54.641502380371094
F-43.27989959716797
tp336
a(F55.20423126220703
F-42.76902389526367
tp337
a(F55.74953842163086
F-42.19218444824219
tp338
a(F56.217674255371094
F-41.54011535644531
tp339
a(F56.605918884277344
F-40.9001579284668
tp340
a(F56.88263702392578
F-40.293373107910156
tp341
a(F56.97248840332031
F-39.669700622558594
tp342
a(F56.664276123046875
F-39.161293029785156
tp343
a(F55.47107696533203
F-38.97270202636719
tp344
a(F52.68960952758789
F-39.432010650634766
tp345
a(F47.669368743896484
F-40.85658645629883
tp346
a(F40.20109939575195
F-43.094261169433594
tp347
a(F30.648378372192383
F-45.669071197509766
tp348
a(F19.44698715209961
F-48.35408020019531
tp349
a(F7.440028190612793
F-50.744571685791016
tp350
a(F-3.706225872039795
F-52.6281623840332
tp351
a(F-11.572331428527832
F-53.93526840209961
tp352
a(F-14.033734321594238
F-54.71022033691406
tp353
a(F-10.682537078857422
F-54.830726623535156
tp354
a(F-2.95746111869812
F-54.252140045166016
tp355
a(F7.233178615570068
F-52.79615020751953
tp356
a(F18.746267318725586
F-50.61246871948242
tp357
a(F30.74081039428711
F-47.64976501464844
tp358
a(F41.96737289428711
F-44.32781219482422
tp359
a(F50.79680633544922
F-41.08321762084961
tp360
a(F56.1274528503418
F-38.464805603027344
tp361
a(F57.54829025268555
F-36.93779754638672
tp362
a(F55.20232009887695
F-36.86648178100586
tp363
a(F49.61398696899414
F-38.203834533691406
tp364
a(F41.66322708129883
F-40.66610336303711
tp365
a(F32.376853942871094
F-43.54018783569336
tp366
a(F23.097745895385742
F-46.35247039794922
tp367
a(F14.895212173461914
F-48.83158874511719
tp368
a(F8.953800201416016
F-50.784812927246094
tp369
a(F5.978423118591309
F-52.131900787353516
tp370
a(F6.004292964935303
F-52.869850158691406
tp371
a(F8.794293403625488
F-53.02610778808594
tp372
a(F-17.695348739624023
F-52.478458404541016
tp373
a(F-9.71815013885498
F-52.13907241821289
tp374
a(F-0.5187245011329651
F-51.425174713134766
tp375
a(F8.848665237426758
F-50.31389617919922
tp376
a(F17.340951919555664
F-48.97340393066406
tp377
a(F51.588035583496094
F-42.093833923339844
tp378
a(F54.49829864501953
F-40.8598747253418
tp379
a(F54.07041931152344
F-40.79914093017578
tp380
a(F50.508785247802734
F-41.88601303100586
tp381
a(F44.70507049560547
F-43.75885009765625
tp382
a(F37.74202346801758
F-45.86687088012695
tp383
a(F30.761444091796875
F-47.823516845703125
tp384
a(F-5.3989386558532715
F-48.74272537231445
tp385
a(F-10.94153118133545
F-49.817039489746094
tp386
a(F-13.193672180175781
F-50.646324157714844
tp387
a(F-11.419719696044922
F-51.12593460083008
tp388
a(F-5.865146160125732
F-51.17344284057617
tp389
a(F1.8946305513381958
F-50.68662643432617
tp390
a(F10.09277057647705
F-49.7824592590332
tp391
a(F17.535404205322266
F-48.7322998046875
tp392
a(F23.577350616455078
F-47.75934600830078
tp393
a(F27.90623664855957
F-46.90779495239258
tp394
a(F30.383386611938477
F-46.27003860473633
tp395
a(F59.994354248046875
F-38.496700286865234
tp396
a(F57.44435119628906
F-39.32052230834961
tp397
a(F51.91011428833008
F-41.323184967041016
tp398
a(F44.096092224121094
F-44.0627326965332
tp399
a(F35.21049118041992
F-46.92732620239258
tp400
a(F26.375829696655273
F-49.54849624633789
tp401
a(F-14.367172241210938
F-51.953269958496094
tp402
a(F-19.916851043701172
F-52.61684036254883
tp403
a(F-22.99706268310547
F-53.29372787475586
tp404
a(F8.235824584960938
F-55.79722213745117
tp405
a(F7.923255920410156
F-56.471073150634766
tp406
a(F8.296578407287598
F-56.953678131103516
tp407
a(F8.934667587280273
F-57.25653839111328
tp408
a(F9.639398574829102
F-57.46381378173828
tp409
a(F10.274127006530762
F-57.546844482421875
tp410
a(F10.785204887390137
F-57.597232818603516
tp411
a(F11.104403495788574
F-57.66832733154297
tp412
a(F11.212416648864746
F-57.76339340209961
tp413
a(F11.090702056884766
F-57.90752410888672
tp414
a(F10.838300704956055
F-58.04311752319336
tp415
a(F10.733498573303223
F-58.14885711669922
tp416
a(F11.150312423706055
F-58.16472244262695
tp417
a(F12.74909782409668
F-57.928619384765625
tp418
a(F16.213727951049805
F-57.36219024658203
tp419
a(F-9.308582305908203
F-56.237510681152344
tp420
a(F-1.523444414138794
F-55.290924072265625
tp421
a(F7.0162353515625
F-53.94506072998047
tp422
a(F15.255597114562988
F-52.348541259765625
tp423
a(F49.63750457763672
F-46.24451446533203
tp424
a(F54.22987747192383
F-44.234886169433594
tp425
a(F57.08933639526367
F-42.79275131225586
tp426
a(F58.50667953491211
F-41.875301361083984
tp427
a(F58.849815368652344
F-41.31680679321289
tp428
a(F58.58845138549805
F-40.943756103515625
tp429
a(F58.0163688659668
F-40.70368576049805
tp430
a(F57.203006744384766
F-40.570579528808594
tp431
a(F55.94247817993164
F-40.57130813598633
tp432
a(F54.24187088012695
F-40.79096603393555
tp433
a(F52.00553512573242
F-41.184993743896484
tp434
a(F49.044639587402344
F-41.823543548583984
tp435
a(F45.11028289794922
F-42.89220428466797
tp436
a(F39.77259063720703
F-44.385826110839844
tp437
a(F33.16851043701172
F-46.13087463378906
tp438
a(F26.03055191040039
F-47.85762405395508
tp439
a(F19.49132537841797
F-49.29098129272461
tp440
a(F14.560818672180176
F-50.39697265625
tp441
a(F12.060029983520508
F-51.13593673706055
tp442
a(F12.5780611038208
F-51.38077926635742
tp443
a(F16.04558563232422
F-51.14142608642578
tp444
a(F21.795019149780273
F-50.28718185424805
tp445
a(F28.858108520507812
F-48.786842346191406
tp446
a(F37.17277908325195
F-47.59176254272461
tp447
a(F43.952735900878906
F-45.41883850097656
tp448
a(F22.389888763427734
F-47.66240692138672
tp449
a(F28.030006408691406
F-46.64979553222656
tp450
a(F31.725067138671875
F-45.89263916015625
tp451
a(F33.49810791015625
F-45.447349548339844
tp452
a(F33.94333267211914
F-45.24825668334961
tp453
a(F33.444610595703125
F-45.21324920654297
tp454
a(F32.339725494384766
F-45.289859771728516
tp455
a(F30.909574508666992
F-45.40766525268555
tp456
a(F29.48780059814453
F-45.59408950805664
tp457
a(F27.977916717529297
F-45.76951599121094
tp458
a(F26.420297622680664
F-45.956485748291016
tp459
a(F24.661849975585938
F-46.11377716064453
tp460
a(F22.62161636352539
F-46.32286834716797
tp461
a(F20.07554817199707
F-46.62533187866211
tp462
a(F16.671581268310547
F-47.088138580322266
tp463
a(F11.984992980957031
F-47.78148651123047
tp464
a(F5.678455829620361
F-48.52626037597656
tp465
a(F-2.1212761402130127
F-49.13260269165039
tp466
a(F-10.703028678894043
F-49.406009674072266
tp467
a(F-18.582841873168945
F-49.34795379638672
tp468
a(F-24.5364933013916
F-49.1955680847168
tp469
a(F-27.939794540405273
F-49.32063674926758
tp470
a(F7.856462001800537
F-51.603580474853516
tp471
a(F12.19225788116455
F-51.512332916259766
tp472
a(F17.123517990112305
F-50.576194763183594
tp473
a(F22.784578323364258
F-49.32564163208008
tp474
a(F28.50149154663086
F-47.769229888916016
tp475
a(F34.17403030395508
F-46.13572311401367
tp476
a(F39.05996322631836
F-44.7263298034668
tp477
a(F42.876800537109375
F-43.649742126464844
tp478
a(F45.455501556396484
F-42.99089813232422
tp479
a(F46.911922454833984
F-42.652183532714844
tp480
a(F47.51515579223633
F-42.56168746948242
tp481
a(F47.53153610229492
F-42.70641326904297
tp482
a(F47.057960510253906
F-42.89914321899414
tp483
a(F46.52600860595703
F-43.09882736206055
tp484
a(F45.97951126098633
F-43.210548400878906
tp485
a(F45.448890686035156
F-43.27802276611328
tp486
a(F44.869102478027344
F-43.35657501220703
tp487
a(F43.90851974487305
F-43.496543884277344
tp488
a(F42.32878112792969
F-43.79452896118164
tp489
a(F39.860694885253906
F-44.4197998046875
tp490
a(F36.12754440307617
F-45.38069152832031
tp491
a(F30.93494415283203
F-46.697113037109375
tp492
a(F24.608989715576172
F-48.159053802490234
tp493
a(F17.975004196166992
F-49.39907455444336
tp494
a(F12.008197784423828
F-50.293006896972656
tp495
a(F7.9352030754089355
F-50.57002639770508
tp496
a(F6.9198994636535645
F-50.19746780395508
tp497
a(F9.394701957702637
F-49.13774490356445
tp498
a(F-15.695354461669922
F-47.08037567138672
tp499
a(F-6.080878734588623
F-45.72392654418945
tp500
a(F30.744171142578125
F-41.77236557006836
tp501
a(F38.97225570678711
F-38.62741470336914
tp502
a(F46.94025421142578
F-35.64018249511719
tp503
a(F54.151832580566406
F-33.30536651611328
tp504
a(F59.52206802368164
F-31.537853240966797
tp505
a(F62.63203811645508
F-30.115833282470703
tp506
a(F63.85960006713867
F-29.142526626586914
tp507
a(F63.644012451171875
F-28.71343421936035
tp508
a(F61.000606536865234
F21.622156143188477
tp509
a(F60.23362731933594
F21.158987045288086
tp510
a(F59.23667526245117
F20.614643096923828
tp511
a(F57.97711181640625
F20.070070266723633
tp512
a(F56.608863830566406
F19.539316177368164
tp513
a(F55.14396667480469
F18.89822769165039
tp514
a(F53.49285125732422
F17.949420928955078
tp515
a(F51.40068054199219
F16.599443435668945
tp516
a(F48.784175872802734
F14.611248970031738
tp517
a(F35.28263854980469
F-37.35594177246094
tp518
a(F28.400354385375977
F-39.70927810668945
tp519
a(F21.00494956970215
F-41.872013092041016
tp520
a(F13.804216384887695
F-43.64042282104492
tp521
a(F7.550624847412109
F-45.006141662597656
tp522
a(F2.572136163711548
F-46.01527404785156
tp523
a(F-1.2141938209533691
F-46.869224548339844
tp524
a(F-4.033459663391113
F-47.63140106201172
tp525
a(F-6.034148216247559
F-48.41839599609375
tp526
a(F-7.440979480743408
F-49.21614456176758
tp527
a(F-8.362646102905273
F-49.97720718383789
tp528
a(F-8.862346649169922
F-50.704429626464844
tp529
a(F-8.952265739440918
F-51.33750534057617
tp530
a(F-8.512165069580078
F-51.80524444580078
tp531
a(F-6.539599418640137
F-52.001548767089844
tp532
a(F-1.2017455101013184
F-51.55561447143555
tp533
a(F8.7522611618042
F-50.111968994140625
tp534
a(F23.734344482421875
F-46.97349166870117
tp535
a(F44.018409729003906
F-41.49667739868164
tp536
a(F69.88587188720703
F-32.99516677856445
tp537
a(F96.04496765136719
F-20.651708602905273
tp538
a(F114.47737884521484
F16.9897518157959
tp539
a(F106.73907470703125
F57.007625579833984
tp540
a(F112.91915893554688
F72.25016021728516
tp541
a(F116.26591491699219
F85.58829498291016
tp542
a(F117.98136901855469
F96.53304290771484
tp543
a(F118.54710388183594
F105.5802993774414
tp544
a(F118.44036865234375
F113.61689758300781
tp545
a(F117.59542846679688
F121.610107421875
tp546
a(F116.33440399169922
F129.75381469726562
tp547
a(F113.699951171875
F136.878662109375
tp548
a(F110.40987396240234
F144.674560546875
tp549
a(F106.3804702758789
F152.81222534179688
tp550
a(F102.16656494140625
F162.01995849609375
tp551
a(F96.087158203125
F171.41603088378906
tp552
a(F110.10965728759766
F174.7997283935547
tp553
a(F104.4454116821289
F183.8926239013672
tp554
a(F97.1224594116211
F191.65489196777344
tp555
a(F102.66114044189453
F196.75662231445312
tp556
a(F95.12849426269531
F206.67967224121094
tp557
a(F86.8236083984375
F216.6752471923828
tp558
a(F76.49915313720703
F227.3841094970703
tp559
a(F64.8909912109375
F233.1883087158203
tp560
a(F-3.2387354373931885
F179.7373046875
tp561
a(F-16.450332641601562
F192.3377227783203
tp562
a(F-31.152631759643555
F205.93350219726562
tp563
a(F-46.55146789550781
F216.05799865722656
tp564
a(F-63.547447204589844
F226.9589080810547
tp565
a(F-80.8056640625
F237.1558074951172
tp566
a(F-97.70391082763672
F247.58609008789062
tp567
a(F-112.74443817138672
F255.66363525390625
tp568
a(F-127.79216766357422
F265.0539855957031
tp569
aNaNaNaNaNaNaNaNaNaNaNaNaNaNaNaNaNaNaNaNaNaNaNaNaNaNaNaNaNaNaNaNaNaNaNaNaNaNaNaNaNaNaNaNaNaNaNaNaNa.